; Function Attrs: mustprogress uwtable
define void @_ZN27CaptureFilePropertiesDialog11changeEventEP6QEvent(ptr noundef nonnull align 8 dereferenceable(144) %0, ptr noundef %1) unnamed_addr #0 align 2 {
  %.not = icmp eq ptr %1, null
  br i1 %.not, label %12, label %3

3:                                                ; preds = %2
  %4 = getelementptr inbounds i8, ptr %1, i64 8
  %5 = load i16, ptr %4, align 8
  %cond = icmp eq i16 %5, 89
  br i1 %cond, label %6, label %12

6:                                                ; preds = %3
  %7 = getelementptr inbounds i8, ptr %0, i64 136
  %8 = load ptr, ptr %7, align 8
  tail call void @_ZN30Ui_CaptureFilePropertiesDialog13retranslateUiEP7QDialog(ptr noundef nonnull align 8 dereferenceable(56) %8, ptr noundef nonnull %0)
  %9 = load ptr, ptr %0, align 8
  %10 = getelementptr inbounds i8, ptr %9, i64 464
  %11 = load ptr, ptr %10, align 8
  tail call void %11(ptr noundef nonnull align 8 dereferenceable(144) %0)
  br label %12

12:                                               ; preds = %6, %3, %2
  tail call void @_ZN7QWidget11changeEventEP6QEvent(ptr noundef nonnull align 8 dereferenceable(40) %0, ptr noundef %1)
  ret void
}